; ModuleID = 'source-C-CXX/46/2072.cpp'
source_filename = "source-C-CXX/46/2072.cpp"
target datalayout = "e-m:e-p270:32:32-p271:32:32-p272:64:64-i64:64-f80:128-n8:16:32:64-S128"
target triple = "x86_64-pc-linux-gnu"

%"class.std::ios_base::Init" = type { i8 }
%"class.std::basic_istream" = type { i32 (...)**, i64, %"class.std::basic_ios" }
%"class.std::basic_ios" = type { %"class.std::ios_base", %"class.std::basic_ostream"*, i8, i8, %"class.std::basic_streambuf"*, %"class.std::ctype"*, %"class.std::num_put"*, %"class.std::num_get"* }
%"class.std::ios_base" = type { i32 (...)**, i64, i64, i32, i32, i32, %"struct.std::ios_base::_Callback_list"*, %"struct.std::ios_base::_Words", [8 x %"struct.std::ios_base::_Words"], i32, %"struct.std::ios_base::_Words"*, %"class.std::locale" }
%"struct.std::ios_base::_Callback_list" = type { %"struct.std::ios_base::_Callback_list"*, void (i32, %"class.std::ios_base"*, i32)*, i32, i32 }
%"struct.std::ios_base::_Words" = type { i8*, i64 }
%"class.std::locale" = type { %"class.std::locale::_Impl"* }
%"class.std::locale::_Impl" = type { i32, %"class.std::locale::facet"**, i64, %"class.std::locale::facet"**, i8** }
%"class.std::locale::facet" = type <{ i32 (...)**, i32, [4 x i8] }>
%"class.std::basic_ostream" = type { i32 (...)**, %"class.std::basic_ios" }
%"class.std::basic_streambuf" = type { i32 (...)**, i8*, i8*, i8*, i8*, i8*, i8*, %"class.std::locale" }
%"class.std::ctype" = type <{ %"class.std::locale::facet.base", [4 x i8], %struct.__locale_struct*, i8, [7 x i8], i32*, i32*, i16*, i8, [256 x i8], [256 x i8], i8, [6 x i8] }>
%"class.std::locale::facet.base" = type <{ i32 (...)**, i32 }>
%struct.__locale_struct = type { [13 x %struct.__locale_data*], i16*, i32*, i32*, [13 x i8*] }
%struct.__locale_data = type opaque
%"class.std::num_put" = type { %"class.std::locale::facet.base", [4 x i8] }
%"class.std::num_get" = type { %"class.std::locale::facet.base", [4 x i8] }

@_ZStL8__ioinit = internal global %"class.std::ios_base::Init" zeroinitializer, align 1
@__dso_handle = external hidden global i8
@_ZSt3cin = external global %"class.std::basic_istream", align 8
@_ZSt4cout = external global %"class.std::basic_ostream", align 8
@.str = private unnamed_addr constant [2 x i8] c" \00", align 1
@.str.1 = private unnamed_addr constant [2 x i8] c"\0A\00", align 1
@llvm.global_ctors = appending global [1 x { i32, void ()*, i8* }] [{ i32, void ()*, i8* } { i32 65535, void ()* @_GLOBAL__sub_I_2072.cpp, i8* null }]

declare void @_ZNSt8ios_base4InitC1Ev(%"class.std::ios_base::Init"* nonnull align 1 dereferenceable(1)) unnamed_addr #0

; Function Attrs: nounwind
declare void @_ZNSt8ios_base4InitD1Ev(%"class.std::ios_base::Init"* nonnull align 1 dereferenceable(1)) unnamed_addr #1

; Function Attrs: nofree nounwind
declare i32 @__cxa_atexit(void (i8*)*, i8*, i8*) local_unnamed_addr #2

; Function Attrs: mustprogress norecurse sspstrong uwtable
define dso_local i32 @main() local_unnamed_addr #3 {
  %1 = alloca i32, align 4
  %2 = alloca [200 x i32], align 16
  %3 = bitcast i32* %1 to i8*
  call void @llvm.lifetime.start.p0i8(i64 4, i8* nonnull %3) #6
  %4 = bitcast [200 x i32]* %2 to i8*
  call void @llvm.lifetime.start.p0i8(i64 800, i8* nonnull %4) #6
  %5 = call nonnull align 8 dereferenceable(16) %"class.std::basic_istream"* @_ZNSirsERi(%"class.std::basic_istream"* nonnull align 8 dereferenceable(16) @_ZSt3cin, i32* nonnull align 4 dereferenceable(4) %1)
  %6 = load i32, i32* %1, align 4, !tbaa !5
  %7 = icmp sgt i32 %6, 0
  br i1 %7, label %13, label %89

8:                                                ; preds = %13
  %9 = icmp sgt i32 %18, 1
  br i1 %9, label %10, label %36

10:                                               ; preds = %8
  %11 = add nsw i32 %18, -1
  %12 = getelementptr inbounds [200 x i32], [200 x i32]* %2, i64 0, i64 0
  br label %21

13:                                               ; preds = %0, %13
  %14 = phi i64 [ %17, %13 ], [ 0, %0 ]
  %15 = getelementptr inbounds [200 x i32], [200 x i32]* %2, i64 0, i64 %14
  %16 = call nonnull align 8 dereferenceable(16) %"class.std::basic_istream"* @_ZNSirsERi(%"class.std::basic_istream"* nonnull align 8 dereferenceable(16) @_ZSt3cin, i32* nonnull align 4 dereferenceable(4) %15)
  %17 = add nuw nsw i64 %14, 1
  %18 = load i32, i32* %1, align 4, !tbaa !5
  %19 = sext i32 %18 to i64
  %20 = icmp slt i64 %17, %19
  br i1 %20, label %13, label %8, !llvm.loop !9

21:                                               ; preds = %10, %71
  %22 = phi i32 [ 0, %10 ], [ %72, %71 ]
  %23 = xor i32 %22, -1
  %24 = add i32 %18, %23
  %25 = zext i32 %24 to i64
  %26 = xor i32 %22, -1
  %27 = add i32 %18, %26
  %28 = icmp sgt i32 %27, 0
  br i1 %28, label %29, label %71

29:                                               ; preds = %21
  %30 = add nsw i64 %25, -1
  %31 = load i32, i32* %12, align 16, !tbaa !5
  %32 = and i64 %25, 3
  %33 = icmp ult i64 %30, 3
  br i1 %33, label %59, label %34

34:                                               ; preds = %29
  %35 = and i64 %25, 4294967292
  br label %38

36:                                               ; preds = %71, %8
  %37 = icmp sgt i32 %18, 0
  br i1 %37, label %74, label %89

38:                                               ; preds = %38, %34
  %39 = phi i64 [ 0, %34 ], [ %54, %38 ]
  %40 = phi i64 [ %35, %34 ], [ %57, %38 ]
  %41 = getelementptr inbounds [200 x i32], [200 x i32]* %2, i64 0, i64 %39
  %42 = or i64 %39, 1
  %43 = getelementptr inbounds [200 x i32], [200 x i32]* %2, i64 0, i64 %42
  %44 = load i32, i32* %43, align 4, !tbaa !5
  store i32 %44, i32* %41, align 16, !tbaa !5
  store i32 %31, i32* %43, align 4, !tbaa !5
  %45 = getelementptr inbounds [200 x i32], [200 x i32]* %2, i64 0, i64 %42
  %46 = or i64 %39, 2
  %47 = getelementptr inbounds [200 x i32], [200 x i32]* %2, i64 0, i64 %46
  %48 = load i32, i32* %47, align 8, !tbaa !5
  store i32 %48, i32* %45, align 4, !tbaa !5
  store i32 %31, i32* %47, align 8, !tbaa !5
  %49 = getelementptr inbounds [200 x i32], [200 x i32]* %2, i64 0, i64 %46
  %50 = or i64 %39, 3
  %51 = getelementptr inbounds [200 x i32], [200 x i32]* %2, i64 0, i64 %50
  %52 = load i32, i32* %51, align 4, !tbaa !5
  store i32 %52, i32* %49, align 8, !tbaa !5
  store i32 %31, i32* %51, align 4, !tbaa !5
  %53 = getelementptr inbounds [200 x i32], [200 x i32]* %2, i64 0, i64 %50
  %54 = add nuw nsw i64 %39, 4
  %55 = getelementptr inbounds [200 x i32], [200 x i32]* %2, i64 0, i64 %54
  %56 = load i32, i32* %55, align 16, !tbaa !5
  store i32 %56, i32* %53, align 4, !tbaa !5
  store i32 %31, i32* %55, align 16, !tbaa !5
  %57 = add i64 %40, -4
  %58 = icmp eq i64 %57, 0
  br i1 %58, label %59, label %38, !llvm.loop !11

59:                                               ; preds = %38, %29
  %60 = phi i64 [ 0, %29 ], [ %54, %38 ]
  %61 = icmp eq i64 %32, 0
  br i1 %61, label %71, label %62

62:                                               ; preds = %59, %62
  %63 = phi i64 [ %66, %62 ], [ %60, %59 ]
  %64 = phi i64 [ %69, %62 ], [ %32, %59 ]
  %65 = getelementptr inbounds [200 x i32], [200 x i32]* %2, i64 0, i64 %63
  %66 = add nuw nsw i64 %63, 1
  %67 = getelementptr inbounds [200 x i32], [200 x i32]* %2, i64 0, i64 %66
  %68 = load i32, i32* %67, align 4, !tbaa !5
  store i32 %68, i32* %65, align 4, !tbaa !5
  store i32 %31, i32* %67, align 4, !tbaa !5
  %69 = add i64 %64, -1
  %70 = icmp eq i64 %69, 0
  br i1 %70, label %71, label %62, !llvm.loop !12

71:                                               ; preds = %59, %62, %21
  %72 = add nuw nsw i32 %22, 1
  %73 = icmp eq i32 %72, %11
  br i1 %73, label %36, label %21, !llvm.loop !14

74:                                               ; preds = %36, %74
  %75 = phi i64 [ %85, %74 ], [ 0, %36 ]
  %76 = getelementptr inbounds [200 x i32], [200 x i32]* %2, i64 0, i64 %75
  %77 = load i32, i32* %76, align 4, !tbaa !5
  %78 = call nonnull align 8 dereferenceable(8) %"class.std::basic_ostream"* @_ZNSolsEi(%"class.std::basic_ostream"* nonnull align 8 dereferenceable(8) @_ZSt4cout, i32 %77)
  %79 = load i32, i32* %1, align 4, !tbaa !5
  %80 = add nsw i32 %79, -1
  %81 = sext i32 %80 to i64
  %82 = icmp slt i64 %75, %81
  %83 = select i1 %82, i8* getelementptr inbounds ([2 x i8], [2 x i8]* @.str, i64 0, i64 0), i8* getelementptr inbounds ([2 x i8], [2 x i8]* @.str.1, i64 0, i64 0)
  %84 = call nonnull align 8 dereferenceable(8) %"class.std::basic_ostream"* @_ZSt16__ostream_insertIcSt11char_traitsIcEERSt13basic_ostreamIT_T0_ES6_PKS3_l(%"class.std::basic_ostream"* nonnull align 8 dereferenceable(8) %78, i8* nonnull %83, i64 1)
  %85 = add nuw nsw i64 %75, 1
  %86 = load i32, i32* %1, align 4, !tbaa !5
  %87 = sext i32 %86 to i64
  %88 = icmp slt i64 %85, %87
  br i1 %88, label %74, label %89, !llvm.loop !15

89:                                               ; preds = %74, %0, %36
  call void @llvm.lifetime.end.p0i8(i64 800, i8* nonnull %4) #6
  call void @llvm.lifetime.end.p0i8(i64 4, i8* nonnull %3) #6
  ret i32 0
}

; Function Attrs: argmemonly mustprogress nofree nosync nounwind willreturn
declare void @llvm.lifetime.start.p0i8(i64 immarg, i8* nocapture) #4

declare nonnull align 8 dereferenceable(16) %"class.std::basic_istream"* @_ZNSirsERi(%"class.std::basic_istream"* nonnull align 8 dereferenceable(16), i32* nonnull align 4 dereferenceable(4)) local_unnamed_addr #0

declare nonnull align 8 dereferenceable(8) %"class.std::basic_ostream"* @_ZNSolsEi(%"class.std::basic_ostream"* nonnull align 8 dereferenceable(8), i32) local_unnamed_addr #0

; Function Attrs: argmemonly mustprogress nofree nosync nounwind willreturn
declare void @llvm.lifetime.end.p0i8(i64 immarg, i8* nocapture) #4

declare nonnull align 8 dereferenceable(8) %"class.std::basic_ostream"* @_ZSt16__ostream_insertIcSt11char_traitsIcEERSt13basic_ostreamIT_T0_ES6_PKS3_l(%"class.std::basic_ostream"* nonnull align 8 dereferenceable(8), i8*, i64) local_unnamed_addr #0

; Function Attrs: sspstrong uwtable
define internal void @_GLOBAL__sub_I_2072.cpp() #5 section ".text.startup" {
  tail call void @_ZNSt8ios_base4InitC1Ev(%"class.std::ios_base::Init"* nonnull align 1 dereferenceable(1) @_ZStL8__ioinit)
  %1 = tail call i32 @__cxa_atexit(void (i8*)* bitcast (void (%"class.std::ios_base::Init"*)* @_ZNSt8ios_base4InitD1Ev to void (i8*)*), i8* getelementptr inbounds (%"class.std::ios_base::Init", %"class.std::ios_base::Init"* @_ZStL8__ioinit, i64 0, i32 0), i8* nonnull @__dso_handle) #6
  ret void
}


!llvm.module.flags = !{!0, !1, !2, !3}
!llvm.ident = !{!4}

!0 = !{i32 1, !"wchar_size", i32 4}
!1 = !{i32 7, !"PIC Level", i32 2}
!2 = !{i32 7, !"PIE Level", i32 2}
!3 = !{i32 7, !"uwtable", i32 1}
!4 = !{!"clang version 13.0.0"}
!5 = !{!6, !6, i64 0}
!6 = !{!"int", !7, i64 0}
!7 = !{!"omnipotent char", !8, i64 0}
!8 = !{!"Simple C++ TBAA"}
!9 = distinct !{!9, !10}
!10 = !{!"llvm.loop.mustprogress"}
!11 = distinct !{!11, !10}
!12 = distinct !{!12, !13}
!13 = !{!"llvm.loop.unroll.disable"}
!14 = distinct !{!14, !10}
!15 = distinct !{!15, !10}
